target datalayout = "e-m:e-p270:32:32-p271:32:32-p272:64:64-i64:64-i128:128-f80:128-n8:16:32:64-S128"
target triple = "x86_64-unknown-linux-gnu"

%"class.std::__shared_count" = type { ptr }
%"class.arrow::Status" = type { ptr }
%"struct.std::_Vector_base.69" = type { %"struct.std::_Vector_base<int, std::allocator<int>>::_Vector_impl" }
%"struct.std::_Vector_base<int, std::allocator<int>>::_Vector_impl" = type { %"struct.std::_Vector_base<int, std::allocator<int>>::_Vector_impl_data" }
%"struct.std::_Vector_base<int, std::allocator<int>>::_Vector_impl_data" = type { ptr, ptr, ptr }
%"class.arrow::compute::detail::ExecSpanIterator" = type { i8, i8, i8, i8, ptr, %"class.std::vector.68", %"class.std::vector.56", %"class.std::vector.56", i64, i64, i64 }
%"class.std::vector.68" = type { %"struct.std::_Vector_base.69" }
%"class.std::vector.56" = type { %"struct.std::_Vector_base.57" }
%"struct.std::_Vector_base.57" = type { %"struct.std::_Vector_base<long, std::allocator<long>>::_Vector_impl" }
%"struct.std::_Vector_base<long, std::allocator<long>>::_Vector_impl" = type { %"struct.std::_Vector_base<long, std::allocator<long>>::_Vector_impl_data" }
%"struct.std::_Vector_base<long, std::allocator<long>>::_Vector_impl_data" = type { ptr, ptr, ptr }
%"class.std::shared_ptr.34" = type { %"class.std::__shared_ptr.35" }
%"class.std::__shared_ptr.35" = type { ptr, %"class.std::__shared_count" }
%"struct.arrow::TypeHolder" = type { ptr, %"class.std::shared_ptr.34" }
%"class.arrow::compute::detail::KernelExecutor" = type { ptr }
%"class.std::vector.281" = type { %"struct.std::_Vector_base.282" }
%"struct.std::_Vector_base.282" = type { %"struct.std::_Vector_base<arrow::compute::(anonymous namespace)::BufferPreallocation, std::allocator<arrow::compute::(anonymous namespace)::BufferPreallocation>>::_Vector_impl" }
%"struct.std::_Vector_base<arrow::compute::(anonymous namespace)::BufferPreallocation, std::allocator<arrow::compute::(anonymous namespace)::BufferPreallocation>>::_Vector_impl" = type { %"struct.std::_Vector_base<arrow::compute::(anonymous namespace)::BufferPreallocation, std::allocator<arrow::compute::(anonymous namespace)::BufferPreallocation>>::_Vector_impl_data" }
%"struct.std::_Vector_base<arrow::compute::(anonymous namespace)::BufferPreallocation, std::allocator<arrow::compute::(anonymous namespace)::BufferPreallocation>>::_Vector_impl_data" = type { ptr, ptr, ptr }
%"struct.arrow::compute::KernelInitArgs" = type { ptr, ptr, ptr }
%"class.arrow::compute::detail::(anonymous namespace)::ScalarAggExecutor" = type { %"class.arrow::compute::detail::(anonymous namespace)::KernelExecutorImpl.375", %"class.arrow::compute::detail::ExecSpanIterator", ptr, ptr }
%"class.arrow::compute::detail::(anonymous namespace)::KernelExecutorImpl.375" = type { %"class.arrow::compute::detail::KernelExecutor", ptr, ptr, %"struct.arrow::TypeHolder", i32, i8, %"class.std::vector.281" }

; Function Attrs: mustprogress uwtable
define internal void @_ZN5arrow7compute6detail12_GLOBAL__N_117ScalarAggExecutor4InitEPNS0_13KernelContextENS0_14KernelInitArgsE(ptr noalias sret(%"class.arrow::Status") align 8 %agg.result, ptr noundef nonnull align 8 dereferenceable(208) %this, ptr noundef %ctx, ptr noundef byval(%"struct.arrow::compute::KernelInitArgs") align 8 %args) unnamed_addr #0 align 2 {
entry:
  %result.ptr = alloca ptr, align 8
  %this.addr = alloca ptr, align 8
  %ctx.addr = alloca ptr, align 8
  %agg.tmp = alloca %"struct.arrow::compute::KernelInitArgs", align 8
  store ptr %agg.result, ptr %result.ptr, align 8
  store ptr %this, ptr %this.addr, align 8
  store ptr %ctx, ptr %ctx.addr, align 8
  %this1 = load ptr, ptr %this.addr, align 8
  %inputs = getelementptr inbounds %"struct.arrow::compute::KernelInitArgs", ptr %args, i32 0, i32 1
  %0 = load ptr, ptr %inputs, align 8
  %input_types_ = getelementptr inbounds %"class.arrow::compute::detail::(anonymous namespace)::ScalarAggExecutor", ptr %this1, i32 0, i32 2
  store ptr %0, ptr %input_types_, align 8
  %options = getelementptr inbounds %"struct.arrow::compute::KernelInitArgs", ptr %args, i32 0, i32 2
  %1 = load ptr, ptr %options, align 8
  %options_ = getelementptr inbounds %"class.arrow::compute::detail::(anonymous namespace)::ScalarAggExecutor", ptr %this1, i32 0, i32 3
  store ptr %1, ptr %options_, align 8
  %2 = load ptr, ptr %ctx.addr, align 8
  call void @llvm.memcpy.p0.p0.i64(ptr align 8 %agg.tmp, ptr align 8 %args, i64 24, i1 false)
  call void @_ZN5arrow7compute6detail12_GLOBAL__N_118KernelExecutorImplINS0_21ScalarAggregateKernelEE4InitEPNS0_13KernelContextENS0_14KernelInitArgsE(ptr sret(%"class.arrow::Status") align 8 %agg.result, ptr noundef nonnull align 8 dereferenceable(80) %this1, ptr noundef %2, ptr noundef byval(%"struct.arrow::compute::KernelInitArgs") align 8 %agg.tmp)
  ret void
}