; Function Attrs: mustprogress uwtable
define internal void @_ZN5arrow7compute6detail12_GLOBAL__N_117ScalarAggExecutor4InitEPNS0_13KernelContextENS0_14KernelInitArgsE(ptr noalias nocapture writeonly sret(%"class.arrow::Status") align 8 %agg.result, ptr nocapture noundef nonnull align 8 dereferenceable(208) %this, ptr noundef %ctx, ptr nocapture noundef readonly byval(%"struct.arrow::compute::KernelInitArgs") align 8 %args) unnamed_addr #0 align 2 {
entry:
  %inputs = getelementptr inbounds i8, ptr %args, i64 8
  %input_types_ = getelementptr inbounds i8, ptr %this, i64 192
  %0 = load <2 x ptr>, ptr %inputs, align 8
  store <2 x ptr> %0, ptr %input_types_, align 8
  tail call void @_ZN5arrow7compute6detail12_GLOBAL__N_118KernelExecutorImplINS0_21ScalarAggregateKernelEE4InitEPNS0_13KernelContextENS0_14KernelInitArgsE(ptr sret(%"class.arrow::Status") align 8 %agg.result, ptr noundef nonnull align 8 dereferenceable(80) %this, ptr noundef %ctx, ptr noundef nonnull byval(%"struct.arrow::compute::KernelInitArgs") align 8 %args)
  ret void
}